target datalayout = "e-m:e-p270:32:32-p271:32:32-p272:64:64-i64:64-i128:128-f80:128-n8:16:32:64-S128"
target triple = "x86_64-pc-linux-gnu"

%struct.List = type { i32, i32, i32, ptr, [0 x %union.ListCell] }
%union.ListCell = type { ptr }
%struct.Alias = type { i32, ptr, ptr }
%struct.Var = type { %struct.Expr, i32, i16, i32, i32, i32, ptr, i32, i32, i32, i16, i32 }
%struct.Expr = type { i32 }
%struct.FormData_pg_attribute = type { i32, %struct.nameData, i32, i16, i16, i32, i16, i8, i8, i8, i8, i8, i8, i8, i8, i8, i8, i8, i16, i32 }
%struct.nameData = type { [64 x i8] }
%struct.String = type { i32, ptr }
%struct.TupleDescData = type { i32, i32, i32, i32, ptr, [0 x %struct.CompactAttribute] }
%struct.CompactAttribute = type { i32, i16, i8, i8, i8, i8, i8, i8, i8 }

@.str.43 = private unnamed_addr constant [1 x i8] zeroinitializer, align 1

; Function Attrs: inlinehint nounwind uwtable
define internal ptr @lnext(ptr noundef %0, ptr noundef %1) #6 {
  %3 = alloca ptr, align 8
  %4 = alloca ptr, align 8
  %5 = alloca ptr, align 8
  store ptr %0, ptr %4, align 8
  store ptr %1, ptr %5, align 8
  %6 = load ptr, ptr %5, align 8
  %7 = getelementptr inbounds nuw %union.ListCell, ptr %6, i32 1
  store ptr %7, ptr %5, align 8
  %8 = load ptr, ptr %5, align 8
  %9 = load ptr, ptr %4, align 8
  %10 = getelementptr inbounds nuw %struct.List, ptr %9, i32 0, i32 3
  %11 = load ptr, ptr %10, align 8
  %12 = load ptr, ptr %4, align 8
  %13 = getelementptr inbounds nuw %struct.List, ptr %12, i32 0, i32 1
  %14 = load i32, ptr %13, align 4
  %15 = sext i32 %14 to i64
  %16 = getelementptr inbounds %union.ListCell, ptr %11, i64 %15
  %17 = icmp ult ptr %8, %16
  br i1 %17, label %18, label %20

18:                                               ; preds = %2
  %19 = load ptr, ptr %5, align 8
  store ptr %19, ptr %3, align 8
  br label %21

20:                                               ; preds = %2
  store ptr null, ptr %3, align 8
  br label %21

21:                                               ; preds = %20, %18
  %22 = load ptr, ptr %3, align 8
  ret ptr %22
}

; Function Attrs: inlinehint nounwind uwtable
define internal ptr @TupleDescAttr(ptr noundef %0, i32 noundef %1) #6 {
  %3 = alloca ptr, align 8
  %4 = alloca i32, align 4
  %5 = alloca ptr, align 8
  store ptr %0, ptr %3, align 8
  store i32 %1, ptr %4, align 4
  call void @llvm.lifetime.start.p0(i64 8, ptr %5) #8
  %6 = load ptr, ptr %3, align 8
  %7 = load ptr, ptr %3, align 8
  %8 = getelementptr inbounds nuw %struct.TupleDescData, ptr %7, i32 0, i32 0
  %9 = load i32, ptr %8, align 8
  %10 = sext i32 %9 to i64
  %11 = mul i64 %10, 16
  %12 = add i64 24, %11
  %13 = getelementptr inbounds nuw i8, ptr %6, i64 %12
  store ptr %13, ptr %5, align 8
  %14 = load ptr, ptr %5, align 8
  %15 = load i32, ptr %4, align 4
  %16 = sext i32 %15 to i64
  %17 = getelementptr inbounds %struct.FormData_pg_attribute, ptr %14, i64 %16
  call void @llvm.lifetime.end.p0(i64 8, ptr %5) #8
  ret ptr %17
}

; Function Attrs: inlinehint nounwind uwtable
define internal ptr @list_nth_cell(ptr noundef %0, i32 noundef %1) #6 {
  %3 = alloca ptr, align 8
  %4 = alloca i32, align 4
  store ptr %0, ptr %3, align 8
  store i32 %1, ptr %4, align 4
  %5 = load ptr, ptr %3, align 8
  %6 = getelementptr inbounds nuw %struct.List, ptr %5, i32 0, i32 3
  %7 = load ptr, ptr %6, align 8
  %8 = load i32, ptr %4, align 4
  %9 = sext i32 %8 to i64
  %10 = getelementptr inbounds %union.ListCell, ptr %7, i64 %9
  ret ptr %10
}

; Function Attrs: inlinehint nounwind uwtable
define internal i32 @list_length(ptr noundef %0) #6 {
  %2 = alloca ptr, align 8
  store ptr %0, ptr %2, align 8
  %3 = load ptr, ptr %2, align 8
  %4 = icmp ne ptr %3, null
  br i1 %4, label %5, label %9

5:                                                ; preds = %1
  %6 = load ptr, ptr %2, align 8
  %7 = getelementptr inbounds nuw %struct.List, ptr %6, i32 0, i32 1
  %8 = load i32, ptr %7, align 4
  br label %10

9:                                                ; preds = %1
  br label %10

10:                                               ; preds = %9, %5
  %11 = phi i32 [ %8, %5 ], [ 0, %9 ]
  ret i32 %11
}

; Function Attrs: nounwind uwtable
define internal void @expandTupleDesc(ptr noundef %0, ptr noundef %1, i32 noundef %2, i32 noundef %3, i32 noundef %4, i32 noundef %5, i32 noundef %6, i32 noundef %7, i1 noundef zeroext %8, ptr noundef %9, ptr noundef %10) #0 {
  %12 = alloca ptr, align 8
  %13 = alloca ptr, align 8
  %14 = alloca i32, align 4
  %15 = alloca i32, align 4
  %16 = alloca i32, align 4
  %17 = alloca i32, align 4
  %18 = alloca i32, align 4
  %19 = alloca i32, align 4
  %20 = alloca i8, align 1
  %21 = alloca ptr, align 8
  %22 = alloca ptr, align 8
  %23 = alloca ptr, align 8
  %24 = alloca i32, align 4
  %25 = alloca ptr, align 8
  %26 = alloca i32, align 4
  %27 = alloca ptr, align 8
  %28 = alloca ptr, align 8
  store ptr %0, ptr %12, align 8
  store ptr %1, ptr %13, align 8
  store i32 %2, ptr %14, align 4
  store i32 %3, ptr %15, align 4
  store i32 %4, ptr %16, align 4
  store i32 %5, ptr %17, align 4
  store i32 %6, ptr %18, align 4
  store i32 %7, ptr %19, align 4
  %29 = zext i1 %8 to i8
  store i8 %29, ptr %20, align 1
  store ptr %9, ptr %21, align 8
  store ptr %10, ptr %22, align 8
  call void @llvm.lifetime.start.p0(i64 8, ptr %23) #8
  call void @llvm.lifetime.start.p0(i64 4, ptr %24) #8
  %30 = load i32, ptr %15, align 4
  %31 = load ptr, ptr %13, align 8
  %32 = getelementptr inbounds nuw %struct.Alias, ptr %31, i32 0, i32 2
  %33 = load ptr, ptr %32, align 8
  %34 = call i32 @list_length(ptr noundef %33)
  %35 = icmp slt i32 %30, %34
  br i1 %35, label %36, label %42

36:                                               ; preds = %11
  %37 = load ptr, ptr %13, align 8
  %38 = getelementptr inbounds nuw %struct.Alias, ptr %37, i32 0, i32 2
  %39 = load ptr, ptr %38, align 8
  %40 = load i32, ptr %15, align 4
  %41 = call ptr @list_nth_cell(ptr noundef %39, i32 noundef %40)
  br label %43

42:                                               ; preds = %11
  br label %43

43:                                               ; preds = %42, %36
  %44 = phi ptr [ %41, %36 ], [ null, %42 ]
  store ptr %44, ptr %23, align 8
  store i32 0, ptr %24, align 4
  br label %45

45:                                               ; preds = %155, %43
  %46 = load i32, ptr %24, align 4
  %47 = load i32, ptr %14, align 4
  %48 = icmp slt i32 %46, %47
  br i1 %48, label %49, label %158

49:                                               ; preds = %45
  call void @llvm.lifetime.start.p0(i64 8, ptr %25) #8
  %50 = load ptr, ptr %12, align 8
  %51 = load i32, ptr %24, align 4
  %52 = call ptr @TupleDescAttr(ptr noundef %50, i32 noundef %51)
  store ptr %52, ptr %25, align 8
  %53 = load ptr, ptr %25, align 8
  %54 = getelementptr inbounds nuw %struct.FormData_pg_attribute, ptr %53, i32 0, i32 16
  %55 = load i8, ptr %54, align 1, !range !6, !noundef !7
  %56 = trunc i8 %55 to i1
  br i1 %56, label %57, label %90

57:                                               ; preds = %49
  %58 = load i8, ptr %20, align 1, !range !6, !noundef !7
  %59 = trunc i8 %58 to i1
  br i1 %59, label %60, label %80

60:                                               ; preds = %57
  %61 = load ptr, ptr %21, align 8
  %62 = icmp ne ptr %61, null
  br i1 %62, label %63, label %70

63:                                               ; preds = %60
  %64 = load ptr, ptr %21, align 8
  %65 = load ptr, ptr %64, align 8
  %66 = call ptr @pstrdup(ptr noundef @.str.43)
  %67 = call ptr @makeString(ptr noundef %66)
  %68 = call ptr @lappend(ptr noundef %65, ptr noundef %67)
  %69 = load ptr, ptr %21, align 8
  store ptr %68, ptr %69, align 8
  br label %70

70:                                               ; preds = %63, %60
  %71 = load ptr, ptr %22, align 8
  %72 = icmp ne ptr %71, null
  br i1 %72, label %73, label %79

73:                                               ; preds = %70
  %74 = load ptr, ptr %22, align 8
  %75 = load ptr, ptr %74, align 8
  %76 = call ptr @makeNullConst(i32 noundef 23, i32 noundef -1, i32 noundef 0)
  %77 = call ptr @lappend(ptr noundef %75, ptr noundef %76)
  %78 = load ptr, ptr %22, align 8
  store ptr %77, ptr %78, align 8
  br label %79

79:                                               ; preds = %73, %70
  br label %80

80:                                               ; preds = %79, %57
  %81 = load ptr, ptr %23, align 8
  %82 = icmp ne ptr %81, null
  br i1 %82, label %83, label %89

83:                                               ; preds = %80
  %84 = load ptr, ptr %13, align 8
  %85 = getelementptr inbounds nuw %struct.Alias, ptr %84, i32 0, i32 2
  %86 = load ptr, ptr %85, align 8
  %87 = load ptr, ptr %23, align 8
  %88 = call ptr @lnext(ptr noundef %86, ptr noundef %87)
  store ptr %88, ptr %23, align 8
  br label %89

89:                                               ; preds = %83, %80
  store i32 4, ptr %26, align 4
  br label %152

90:                                               ; preds = %49
  %91 = load ptr, ptr %21, align 8
  %92 = icmp ne ptr %91, null
  br i1 %92, label %93, label %119

93:                                               ; preds = %90
  call void @llvm.lifetime.start.p0(i64 8, ptr %27) #8
  %94 = load ptr, ptr %23, align 8
  %95 = icmp ne ptr %94, null
  br i1 %95, label %96, label %106

96:                                               ; preds = %93
  %97 = load ptr, ptr %23, align 8
  %98 = load ptr, ptr %97, align 8
  %99 = getelementptr inbounds nuw %struct.String, ptr %98, i32 0, i32 1
  %100 = load ptr, ptr %99, align 8
  store ptr %100, ptr %27, align 8
  %101 = load ptr, ptr %13, align 8
  %102 = getelementptr inbounds nuw %struct.Alias, ptr %101, i32 0, i32 2
  %103 = load ptr, ptr %102, align 8
  %104 = load ptr, ptr %23, align 8
  %105 = call ptr @lnext(ptr noundef %103, ptr noundef %104)
  store ptr %105, ptr %23, align 8
  br label %111

106:                                              ; preds = %93
  %107 = load ptr, ptr %25, align 8
  %108 = getelementptr inbounds nuw %struct.FormData_pg_attribute, ptr %107, i32 0, i32 1
  %109 = getelementptr inbounds nuw %struct.nameData, ptr %108, i32 0, i32 0
  %110 = getelementptr inbounds [64 x i8], ptr %109, i64 0, i64 0
  store ptr %110, ptr %27, align 8
  br label %111

111:                                              ; preds = %106, %96
  %112 = load ptr, ptr %21, align 8
  %113 = load ptr, ptr %112, align 8
  %114 = load ptr, ptr %27, align 8
  %115 = call ptr @pstrdup(ptr noundef %114)
  %116 = call ptr @makeString(ptr noundef %115)
  %117 = call ptr @lappend(ptr noundef %113, ptr noundef %116)
  %118 = load ptr, ptr %21, align 8
  store ptr %117, ptr %118, align 8
  call void @llvm.lifetime.end.p0(i64 8, ptr %27) #8
  br label %119

119:                                              ; preds = %111, %90
  %120 = load ptr, ptr %22, align 8
  %121 = icmp ne ptr %120, null
  br i1 %121, label %122, label %151

122:                                              ; preds = %119
  call void @llvm.lifetime.start.p0(i64 8, ptr %28) #8
  %123 = load i32, ptr %16, align 4
  %124 = load i32, ptr %24, align 4
  %125 = load i32, ptr %15, align 4
  %126 = add i32 %124, %125
  %127 = add i32 %126, 1
  %128 = trunc i32 %127 to i16
  %129 = load ptr, ptr %25, align 8
  %130 = getelementptr inbounds nuw %struct.FormData_pg_attribute, ptr %129, i32 0, i32 2
  %131 = load i32, ptr %130, align 4
  %132 = load ptr, ptr %25, align 8
  %133 = getelementptr inbounds nuw %struct.FormData_pg_attribute, ptr %132, i32 0, i32 5
  %134 = load i32, ptr %133, align 4
  %135 = load ptr, ptr %25, align 8
  %136 = getelementptr inbounds nuw %struct.FormData_pg_attribute, ptr %135, i32 0, i32 19
  %137 = load i32, ptr %136, align 4
  %138 = load i32, ptr %17, align 4
  %139 = call ptr @makeVar(i32 noundef %123, i16 noundef signext %128, i32 noundef %131, i32 noundef %134, i32 noundef %137, i32 noundef %138)
  store ptr %139, ptr %28, align 8
  %140 = load i32, ptr %18, align 4
  %141 = load ptr, ptr %28, align 8
  %142 = getelementptr inbounds nuw %struct.Var, ptr %141, i32 0, i32 8
  store i32 %140, ptr %142, align 4
  %143 = load i32, ptr %19, align 4
  %144 = load ptr, ptr %28, align 8
  %145 = getelementptr inbounds nuw %struct.Var, ptr %144, i32 0, i32 11
  store i32 %143, ptr %145, align 8
  %146 = load ptr, ptr %22, align 8
  %147 = load ptr, ptr %146, align 8
  %148 = load ptr, ptr %28, align 8
  %149 = call ptr @lappend(ptr noundef %147, ptr noundef %148)
  %150 = load ptr, ptr %22, align 8
  store ptr %149, ptr %150, align 8
  call void @llvm.lifetime.end.p0(i64 8, ptr %28) #8
  br label %151

151:                                              ; preds = %122, %119
  store i32 0, ptr %26, align 4
  br label %152

152:                                              ; preds = %151, %89
  call void @llvm.lifetime.end.p0(i64 8, ptr %25) #8
  %153 = load i32, ptr %26, align 4
  switch i32 %153, label %159 [
    i32 0, label %154
    i32 4, label %155
  ]

154:                                              ; preds = %152
  br label %155

155:                                              ; preds = %154, %152
  %156 = load i32, ptr %24, align 4
  %157 = add i32 %156, 1
  store i32 %157, ptr %24, align 4
  br label %45, !llvm.loop !46

158:                                              ; preds = %45
  call void @llvm.lifetime.end.p0(i64 4, ptr %24) #8
  call void @llvm.lifetime.end.p0(i64 8, ptr %23) #8
  ret void

159:                                              ; preds = %152
  unreachable
}