; Function Attrs: nounwind uwtable
define internal fastcc void @expandTupleDesc(ptr noundef %0, ptr noundef readonly captures(none) %1, i32 noundef %2, i32 noundef %3, i32 noundef %4, i32 noundef %5, i32 noundef %6, i32 noundef %7, i1 noundef zeroext %8, ptr noundef captures(address_is_null) %9, ptr noundef captures(address_is_null) %10) unnamed_addr #0 {
  %12 = getelementptr inbounds nuw i8, ptr %1, i64 16
  %13 = load ptr, ptr %12, align 8
  %.not.i = icmp eq ptr %13, null
  br i1 %.not.i, label %list_length.exit, label %14

14:                                               ; preds = %11
  %15 = getelementptr inbounds nuw i8, ptr %13, i64 4
  %16 = load i32, ptr %15, align 4
  br label %list_length.exit

list_length.exit:                                 ; preds = %11, %14
  %17 = phi i32 [ %16, %14 ], [ 0, %11 ]
  %18 = icmp slt i32 %3, %17
  br i1 %18, label %19, label %23

19:                                               ; preds = %list_length.exit
  %20 = getelementptr i8, ptr %13, i64 16
  %.val = load ptr, ptr %20, align 8
  %21 = sext i32 %3 to i64
  %22 = getelementptr inbounds %union.ListCell, ptr %.val, i64 %21
  br label %23

23:                                               ; preds = %list_length.exit, %19
  %24 = phi ptr [ %22, %19 ], [ null, %list_length.exit ]
  %invariant.gep = getelementptr i8, ptr %0, i64 24
  %25 = icmp sgt i32 %2, 0
  br i1 %25, label %.lr.ph, label %._crit_edge

.lr.ph:                                           ; preds = %23
  %.not = icmp eq ptr %9, null
  %.not51 = icmp eq ptr %10, null
  %wide.trip.count = zext nneg i32 %2 to i64
  br label %26

26:                                               ; preds = %.lr.ph, %92
  %indvars.iv = phi i64 [ 0, %.lr.ph ], [ %indvars.iv.next, %92 ]
  %.061 = phi ptr [ %24, %.lr.ph ], [ %.2, %92 ]
  %27 = load i32, ptr %0, align 8
  %28 = sext i32 %27 to i64
  %29 = shl nsw i64 %28, 4
  %gep = getelementptr i8, ptr %invariant.gep, i64 %29
  %30 = getelementptr inbounds nuw %struct.FormData_pg_attribute, ptr %gep, i64 %indvars.iv
  %31 = getelementptr inbounds nuw i8, ptr %30, i64 91
  %32 = load i8, ptr %31, align 1, !range !4, !noundef !5
  %33 = trunc nuw i8 %32 to i1
  br i1 %33, label %34, label %55

34:                                               ; preds = %26
  br i1 %8, label %35, label %46

35:                                               ; preds = %34
  br i1 %.not, label %41, label %36

36:                                               ; preds = %35
  %37 = load ptr, ptr %9, align 8
  %38 = tail call ptr @pstrdup(ptr noundef nonnull @.str.43) #11
  %39 = tail call ptr @makeString(ptr noundef %38) #11
  %40 = tail call ptr @lappend(ptr noundef %37, ptr noundef %39) #11
  store ptr %40, ptr %9, align 8
  br label %41

41:                                               ; preds = %36, %35
  br i1 %.not51, label %46, label %42

42:                                               ; preds = %41
  %43 = load ptr, ptr %10, align 8
  %44 = tail call ptr @makeNullConst(i32 noundef 23, i32 noundef -1, i32 noundef 0) #11
  %45 = tail call ptr @lappend(ptr noundef %43, ptr noundef %44) #11
  store ptr %45, ptr %10, align 8
  br label %46

46:                                               ; preds = %41, %42, %34
  %.not54 = icmp eq ptr %.061, null
  br i1 %.not54, label %92, label %47

47:                                               ; preds = %46
  %48 = load ptr, ptr %12, align 8
  %49 = getelementptr i8, ptr %48, i64 4
  %.val57 = load i32, ptr %49, align 4
  %50 = getelementptr i8, ptr %48, i64 16
  %.val58 = load ptr, ptr %50, align 8
  %51 = getelementptr inbounds nuw i8, ptr %.061, i64 8
  %52 = sext i32 %.val57 to i64
  %53 = getelementptr inbounds %union.ListCell, ptr %.val58, i64 %52
  %54 = icmp ult ptr %51, %53
  %..i = select i1 %54, ptr %51, ptr null
  br label %92

55:                                               ; preds = %26
  br i1 %.not, label %75, label %56

56:                                               ; preds = %55
  %.not50 = icmp eq ptr %.061, null
  br i1 %.not50, label %68, label %57

57:                                               ; preds = %56
  %58 = load ptr, ptr %.061, align 8
  %59 = getelementptr inbounds nuw i8, ptr %58, i64 8
  %60 = load ptr, ptr %59, align 8
  %61 = load ptr, ptr %12, align 8
  %62 = getelementptr i8, ptr %61, i64 4
  %.val55 = load i32, ptr %62, align 4
  %63 = getelementptr i8, ptr %61, i64 16
  %.val56 = load ptr, ptr %63, align 8
  %64 = getelementptr inbounds nuw i8, ptr %.061, i64 8
  %65 = sext i32 %.val55 to i64
  %66 = getelementptr inbounds %union.ListCell, ptr %.val56, i64 %65
  %67 = icmp ult ptr %64, %66
  %..i59 = select i1 %67, ptr %64, ptr null
  br label %70

68:                                               ; preds = %56
  %69 = getelementptr inbounds nuw i8, ptr %30, i64 4
  br label %70

70:                                               ; preds = %68, %57
  %.043 = phi ptr [ %60, %57 ], [ %69, %68 ]
  %.4 = phi ptr [ %..i59, %57 ], [ null, %68 ]
  %71 = load ptr, ptr %9, align 8
  %72 = tail call ptr @pstrdup(ptr noundef %.043) #11
  %73 = tail call ptr @makeString(ptr noundef %72) #11
  %74 = tail call ptr @lappend(ptr noundef %71, ptr noundef %73) #11
  store ptr %74, ptr %9, align 8
  br label %75

75:                                               ; preds = %70, %55
  %.3 = phi ptr [ %.4, %70 ], [ %.061, %55 ]
  br i1 %.not51, label %92, label %76

76:                                               ; preds = %75
  %77 = trunc nuw nsw i64 %indvars.iv to i32
  %78 = add i32 %3, %77
  %79 = trunc i32 %78 to i16
  %80 = add i16 %79, 1
  %81 = getelementptr inbounds nuw i8, ptr %30, i64 68
  %82 = load i32, ptr %81, align 4
  %83 = getelementptr inbounds nuw i8, ptr %30, i64 76
  %84 = load i32, ptr %83, align 4
  %85 = getelementptr inbounds nuw i8, ptr %30, i64 96
  %86 = load i32, ptr %85, align 4
  %87 = tail call ptr @makeVar(i32 noundef %4, i16 noundef signext %80, i32 noundef %82, i32 noundef %84, i32 noundef %86, i32 noundef %5) #11
  %88 = getelementptr inbounds nuw i8, ptr %87, i64 36
  store i32 %6, ptr %88, align 4
  %89 = getelementptr inbounds nuw i8, ptr %87, i64 48
  store i32 %7, ptr %89, align 8
  %90 = load ptr, ptr %10, align 8
  %91 = tail call ptr @lappend(ptr noundef %90, ptr noundef %87) #11
  store ptr %91, ptr %10, align 8
  br label %92

92:                                               ; preds = %75, %76, %46, %47
  %.2 = phi ptr [ %..i, %47 ], [ null, %46 ], [ %.3, %76 ], [ %.3, %75 ]
  %indvars.iv.next = add nuw nsw i64 %indvars.iv, 1
  %exitcond.not = icmp eq i64 %indvars.iv.next, %wide.trip.count
  br i1 %exitcond.not, label %._crit_edge, label %26, !llvm.loop !29

._crit_edge:                                      ; preds = %92, %23
  ret void
}